target datalayout = "e-m:e-p270:32:32-p271:32:32-p272:64:64-i64:64-i128:128-f80:128-n8:16:32:64-S128"
target triple = "x86_64-pc-linux-gnu"

%struct.UPropsVectors = type { ptr, i32, i32, i32, i32, i8 }

; Function Attrs: mustprogress nounwind uwtable
define internal noundef i32 @_ZL17upvec_compareRowsPKvS0_S0_(ptr noundef %0, ptr noundef %1, ptr noundef %2) #6 {
  %4 = alloca i32, align 4
  %5 = alloca ptr, align 8
  %6 = alloca ptr, align 8
  %7 = alloca ptr, align 8
  %8 = alloca ptr, align 8
  %9 = alloca ptr, align 8
  %10 = alloca ptr, align 8
  %11 = alloca i32, align 4
  %12 = alloca i32, align 4
  %13 = alloca i32, align 4
  %14 = alloca i32, align 4
  store ptr %0, ptr %5, align 8, !tbaa !7
  store ptr %1, ptr %6, align 8, !tbaa !7
  store ptr %2, ptr %7, align 8, !tbaa !7
  call void @llvm.lifetime.start.p0(i64 8, ptr %8) #9
  %15 = load ptr, ptr %6, align 8, !tbaa !7
  store ptr %15, ptr %8, align 8, !tbaa !13
  call void @llvm.lifetime.start.p0(i64 8, ptr %9) #9
  %16 = load ptr, ptr %7, align 8, !tbaa !7
  store ptr %16, ptr %9, align 8, !tbaa !13
  call void @llvm.lifetime.start.p0(i64 8, ptr %10) #9
  %17 = load ptr, ptr %5, align 8, !tbaa !7
  store ptr %17, ptr %10, align 8, !tbaa !11
  call void @llvm.lifetime.start.p0(i64 4, ptr %11) #9
  call void @llvm.lifetime.start.p0(i64 4, ptr %12) #9
  call void @llvm.lifetime.start.p0(i64 4, ptr %13) #9
  %18 = load ptr, ptr %10, align 8, !tbaa !11
  %19 = getelementptr inbounds nuw %struct.UPropsVectors, ptr %18, i32 0, i32 1
  %20 = load i32, ptr %19, align 8, !tbaa !17
  store i32 %20, ptr %13, align 4, !tbaa !3
  store i32 %20, ptr %12, align 4, !tbaa !3
  store i32 2, ptr %11, align 4, !tbaa !3
  br label %21

21:                                               ; preds = %53, %3
  %22 = load ptr, ptr %8, align 8, !tbaa !13
  %23 = load i32, ptr %11, align 4, !tbaa !3
  %24 = sext i32 %23 to i64
  %25 = getelementptr inbounds i32, ptr %22, i64 %24
  %26 = load i32, ptr %25, align 4, !tbaa !3
  %27 = load ptr, ptr %9, align 8, !tbaa !13
  %28 = load i32, ptr %11, align 4, !tbaa !3
  %29 = sext i32 %28 to i64
  %30 = getelementptr inbounds i32, ptr %27, i64 %29
  %31 = load i32, ptr %30, align 4, !tbaa !3
  %32 = icmp ne i32 %26, %31
  br i1 %32, label %33, label %46

33:                                               ; preds = %21
  %34 = load ptr, ptr %8, align 8, !tbaa !13
  %35 = load i32, ptr %11, align 4, !tbaa !3
  %36 = sext i32 %35 to i64
  %37 = getelementptr inbounds i32, ptr %34, i64 %36
  %38 = load i32, ptr %37, align 4, !tbaa !3
  %39 = load ptr, ptr %9, align 8, !tbaa !13
  %40 = load i32, ptr %11, align 4, !tbaa !3
  %41 = sext i32 %40 to i64
  %42 = getelementptr inbounds i32, ptr %39, i64 %41
  %43 = load i32, ptr %42, align 4, !tbaa !3
  %44 = icmp ult i32 %38, %43
  %45 = select i1 %44, i32 -1, i32 1
  store i32 %45, ptr %4, align 4
  store i32 1, ptr %14, align 4
  br label %58

46:                                               ; preds = %21
  %47 = load i32, ptr %11, align 4, !tbaa !3
  %48 = add nsw i32 %47, 1
  store i32 %48, ptr %11, align 4, !tbaa !3
  %49 = load i32, ptr %13, align 4, !tbaa !3
  %50 = icmp eq i32 %48, %49
  br i1 %50, label %51, label %52

51:                                               ; preds = %46
  store i32 0, ptr %11, align 4, !tbaa !3
  br label %52

52:                                               ; preds = %51, %46
  br label %53

53:                                               ; preds = %52
  %54 = load i32, ptr %12, align 4, !tbaa !3
  %55 = add nsw i32 %54, -1
  store i32 %55, ptr %12, align 4, !tbaa !3
  %56 = icmp sgt i32 %55, 0
  br i1 %56, label %21, label %57, !llvm.loop !30

57:                                               ; preds = %53
  store i32 0, ptr %4, align 4
  store i32 1, ptr %14, align 4
  br label %58

58:                                               ; preds = %57, %33
  call void @llvm.lifetime.end.p0(i64 4, ptr %13) #9
  call void @llvm.lifetime.end.p0(i64 4, ptr %12) #9
  call void @llvm.lifetime.end.p0(i64 4, ptr %11) #9
  call void @llvm.lifetime.end.p0(i64 8, ptr %10) #9
  call void @llvm.lifetime.end.p0(i64 8, ptr %9) #9
  call void @llvm.lifetime.end.p0(i64 8, ptr %8) #9
  %59 = load i32, ptr %4, align 4
  ret i32 %59
}