; Function Attrs: mustprogress nofree norecurse nosync nounwind willreturn memory(argmem: read) uwtable
define internal noundef range(i32 -1, 2) i32 @_ZL17upvec_compareRowsPKvS0_S0_(ptr noundef readonly captures(none) %0, ptr noundef readonly captures(none) %1, ptr noundef readonly captures(none) %2) #8 {
  %4 = getelementptr inbounds nuw i8, ptr %0, i64 8
  %5 = load i32, ptr %4, align 8, !tbaa !12
  br label %6

6:                                                ; preds = %15, %3
  %.016 = phi i32 [ 2, %3 ], [ %spec.store.select, %15 ]
  %.015 = phi i32 [ %5, %3 ], [ %18, %15 ]
  %7 = sext i32 %.016 to i64
  %8 = getelementptr inbounds i32, ptr %1, i64 %7
  %9 = load i32, ptr %8, align 4, !tbaa !15
  %10 = getelementptr inbounds i32, ptr %2, i64 %7
  %11 = load i32, ptr %10, align 4, !tbaa !15
  %.not = icmp eq i32 %9, %11
  br i1 %.not, label %15, label %12

12:                                               ; preds = %6
  %13 = icmp ult i32 %9, %11
  %14 = select i1 %13, i32 -1, i32 1
  br label %.loopexit

15:                                               ; preds = %6
  %16 = add nsw i32 %.016, 1
  %17 = icmp eq i32 %16, %5
  %spec.store.select = select i1 %17, i32 0, i32 %16
  %18 = add nsw i32 %.015, -1
  %19 = icmp sgt i32 %.015, 1
  br i1 %19, label %6, label %.loopexit, !llvm.loop !25

.loopexit:                                        ; preds = %15, %12
  %.0 = phi i32 [ %14, %12 ], [ 0, %15 ]
  ret i32 %.0
}